; Function Attrs: nounwind uwtable
define ptr @l_Lean_PrettyPrinter_Parenthesizer_many1Unbox_parenthesizer(ptr noundef %0, ptr noundef %1, ptr noundef %2, ptr noundef %3, ptr noundef %4, ptr noundef %5) local_unnamed_addr #0 {
  %7 = tail call ptr @l_Lean_Syntax_MonadTraverser_getCur___at_Lean_PrettyPrinter_Parenthesizer_visitArgs___spec__1___rarg(ptr noundef %2, ptr poison, ptr poison, ptr noundef %5)
  %8 = getelementptr inbounds nuw i8, ptr %7, i64 8
  %9 = load ptr, ptr %8, align 8, !tbaa !4
  %10 = ptrtoint ptr %9 to i64
  %11 = and i64 %10, 1
  %.not = icmp eq i64 %11, 0
  br i1 %.not, label %12, label %lean_inc.exit28

12:                                               ; preds = %6
  %.val.i = load i32, ptr %9, align 4, !tbaa !8
  %13 = icmp sgt i32 %.val.i, 0
  br i1 %13, label %14, label %16, !prof !11

14:                                               ; preds = %12
  %15 = add nuw i32 %.val.i, 1
  store i32 %15, ptr %9, align 4, !tbaa !8
  br label %lean_inc.exit28

16:                                               ; preds = %12
  %.not.i32 = icmp eq i32 %.val.i, 0
  br i1 %.not.i32, label %lean_inc.exit28, label %17

17:                                               ; preds = %16
  tail call void @lean_inc_ref_cold(ptr noundef nonnull %9) #6
  br label %lean_inc.exit28

lean_inc.exit28:                                  ; preds = %17, %16, %14, %6
  %18 = getelementptr inbounds nuw i8, ptr %7, i64 16
  %19 = load ptr, ptr %18, align 8, !tbaa !4
  %20 = ptrtoint ptr %19 to i64
  %21 = and i64 %20, 1
  %.not36 = icmp eq i64 %21, 0
  br i1 %.not36, label %22, label %lean_inc.exit

22:                                               ; preds = %lean_inc.exit28
  %.val.i33 = load i32, ptr %19, align 4, !tbaa !8
  %23 = icmp sgt i32 %.val.i33, 0
  br i1 %23, label %24, label %26, !prof !11

24:                                               ; preds = %22
  %25 = add nuw i32 %.val.i33, 1
  store i32 %25, ptr %19, align 4, !tbaa !8
  br label %lean_inc.exit

26:                                               ; preds = %22
  %.not.i34 = icmp eq i32 %.val.i33, 0
  br i1 %.not.i34, label %lean_inc.exit, label %27

27:                                               ; preds = %26
  tail call void @lean_inc_ref_cold(ptr noundef nonnull %19) #6
  br label %lean_inc.exit

lean_inc.exit:                                    ; preds = %27, %26, %24, %lean_inc.exit28
  %28 = ptrtoint ptr %7 to i64
  %29 = and i64 %28, 1
  %.not37 = icmp eq i64 %29, 0
  br i1 %.not37, label %30, label %lean_dec.exit29

30:                                               ; preds = %lean_inc.exit
  %31 = load i32, ptr %7, align 4, !tbaa !8
  %32 = icmp sgt i32 %31, 1
  br i1 %32, label %33, label %35, !prof !11

33:                                               ; preds = %30
  %34 = add nsw i32 %31, -1
  store i32 %34, ptr %7, align 4, !tbaa !8
  br label %lean_dec.exit29

35:                                               ; preds = %30
  %.not.i = icmp eq i32 %31, 0
  br i1 %.not.i, label %lean_dec.exit29, label %36

36:                                               ; preds = %35
  tail call void @lean_dec_ref_cold(ptr noundef nonnull %7) #6
  br label %lean_dec.exit29

lean_dec.exit29:                                  ; preds = %36, %35, %33, %lean_inc.exit
  %37 = tail call ptr @l_Lean_Syntax_getKind(ptr noundef %9) #6
  %38 = load ptr, ptr @l_Lean_PrettyPrinter_Parenthesizer_many1Unbox_parenthesizer___closed__2, align 8, !tbaa !4
  %39 = tail call zeroext i8 @lean_name_eq(ptr noundef %37, ptr noundef %38) #6
  %40 = ptrtoint ptr %37 to i64
  %41 = and i64 %40, 1
  %.not38 = icmp eq i64 %41, 0
  br i1 %.not38, label %42, label %lean_dec.exit

42:                                               ; preds = %lean_dec.exit29
  %43 = load i32, ptr %37, align 4, !tbaa !8
  %44 = icmp sgt i32 %43, 1
  br i1 %44, label %45, label %47, !prof !11

45:                                               ; preds = %42
  %46 = add nsw i32 %43, -1
  store i32 %46, ptr %37, align 4, !tbaa !8
  br label %lean_dec.exit

47:                                               ; preds = %42
  %.not.i30 = icmp eq i32 %43, 0
  br i1 %.not.i30, label %lean_dec.exit, label %48

48:                                               ; preds = %47
  tail call void @lean_dec_ref_cold(ptr noundef nonnull %37) #6
  br label %lean_dec.exit

lean_dec.exit:                                    ; preds = %48, %47, %45, %lean_dec.exit29
  %49 = icmp eq i8 %39, 0
  br i1 %49, label %50, label %52

50:                                               ; preds = %lean_dec.exit
  %51 = tail call ptr @lean_apply_5(ptr noundef %0, ptr noundef %1, ptr noundef %2, ptr noundef %3, ptr noundef %4, ptr noundef %19) #6
  br label %54

52:                                               ; preds = %lean_dec.exit
  %53 = tail call ptr @l_Lean_PrettyPrinter_Parenthesizer_manyNoAntiquot_parenthesizer(ptr noundef %0, ptr noundef %1, ptr noundef %2, ptr noundef %3, ptr noundef %4, ptr noundef %19)
  br label %54

54:                                               ; preds = %52, %50
  %.0 = phi ptr [ %51, %50 ], [ %53, %52 ]
  ret ptr %.0
}